target datalayout = "e-m:e-p270:32:32-p271:32:32-p272:64:64-i64:64-i128:128-f80:128-n8:16:32:64-S128"
target triple = "x86_64-pc-linux-gnu"

@.str.8 = private unnamed_addr constant [20 x i8] c"Unknown pixel type.\00", align 1
@_ZTIN7Iex_3_46ArgExcE = external constant ptr

; Function Attrs: inlinehint mustprogress nounwind uwtable
define linkonce_odr hidden noundef i32 @_ZN7Imf_3_43Xdr4sizeIfEEiv() #7 comdat {
  ret i32 4
}

; Function Attrs: inlinehint mustprogress nounwind uwtable
define linkonce_odr hidden noundef i32 @_ZN7Imf_3_43Xdr4sizeIN9Imath_3_24halfEEEiv() #7 comdat {
  ret i32 2
}

; Function Attrs: inlinehint mustprogress nounwind uwtable
define linkonce_odr hidden noundef i32 @_ZN7Imf_3_43Xdr4sizeIjEEiv() #7 comdat {
  ret i32 4
}

; Function Attrs: mustprogress uwtable
define noundef i32 @_ZN7Imf_3_413pixelTypeSizeENS_9PixelTypeE(i32 noundef %0) #6 personality ptr @__gxx_personality_v0 {
  %2 = alloca i32, align 4
  %3 = alloca i32, align 4
  %4 = alloca ptr, align 8
  %5 = alloca i32, align 4
  store i32 %0, ptr %2, align 4, !tbaa !12
  call void @llvm.lifetime.start.p0(i64 4, ptr %3) #3
  %6 = load i32, ptr %2, align 4, !tbaa !12
  switch i32 %6, label %13 [
    i32 0, label %7
    i32 1, label %9
    i32 2, label %11
  ]

7:                                                ; preds = %1
  %8 = call noundef i32 @_ZN7Imf_3_43Xdr4sizeIjEEiv()
  store i32 %8, ptr %3, align 4, !tbaa !14
  br label %20

9:                                                ; preds = %1
  %10 = call noundef i32 @_ZN7Imf_3_43Xdr4sizeIN9Imath_3_24halfEEEiv()
  store i32 %10, ptr %3, align 4, !tbaa !14
  br label %20

11:                                               ; preds = %1
  %12 = call noundef i32 @_ZN7Imf_3_43Xdr4sizeIfEEiv()
  store i32 %12, ptr %3, align 4, !tbaa !14
  br label %20

13:                                               ; preds = %1
  %14 = call ptr @__cxa_allocate_exception(i64 72) #3
  invoke void @_ZN7Iex_3_46ArgExcC1EPKc(ptr noundef nonnull align 8 dereferenceable(72) %14, ptr noundef @.str.8)
          to label %15 unwind label %16

15:                                               ; preds = %13
  call void @__cxa_throw(ptr %14, ptr @_ZTIN7Iex_3_46ArgExcE, ptr @_ZN7Iex_3_46ArgExcD1Ev) #19
  unreachable

16:                                               ; preds = %13
  %17 = landingpad { ptr, i32 }
          cleanup
  %18 = extractvalue { ptr, i32 } %17, 0
  store ptr %18, ptr %4, align 8
  %19 = extractvalue { ptr, i32 } %17, 1
  store i32 %19, ptr %5, align 4
  call void @__cxa_free_exception(ptr %14) #3
  call void @llvm.lifetime.end.p0(i64 4, ptr %3) #3
  br label %22

20:                                               ; preds = %11, %9, %7
  %21 = load i32, ptr %3, align 4, !tbaa !14
  call void @llvm.lifetime.end.p0(i64 4, ptr %3) #3
  ret i32 %21

22:                                               ; preds = %16
  %23 = load ptr, ptr %4, align 8
  %24 = load i32, ptr %5, align 4
  %25 = insertvalue { ptr, i32 } poison, ptr %23, 0
  %26 = insertvalue { ptr, i32 } %25, i32 %24, 1
  resume { ptr, i32 } %26
}