; Function Attrs: mustprogress uwtable
define noundef range(i32 2, 5) i32 @_ZN7Imf_3_413pixelTypeSizeENS_9PixelTypeE(i32 noundef %0) local_unnamed_addr #5 personality ptr @__gxx_personality_v0 {
  %2 = icmp ult i32 %0, 3
  br i1 %2, label %switch.lookup, label %3

3:                                                ; preds = %1
  %4 = tail call ptr @__cxa_allocate_exception(i64 72) #20
  invoke void @_ZN7Iex_3_46ArgExcC1EPKc(ptr noundef nonnull align 8 dereferenceable(72) %4, ptr noundef nonnull @.str.8)
          to label %5 unwind label %6

5:                                                ; preds = %3
  tail call void @__cxa_throw(ptr nonnull %4, ptr nonnull @_ZTIN7Iex_3_46ArgExcE, ptr nonnull @_ZN7Iex_3_46ArgExcD1Ev) #21
  unreachable

6:                                                ; preds = %3
  %7 = landingpad { ptr, i32 }
          cleanup
  tail call void @__cxa_free_exception(ptr nonnull %4) #20
  resume { ptr, i32 } %7

switch.lookup:                                    ; preds = %1
  %8 = zext nneg i32 %0 to i64
  %switch.gep = getelementptr inbounds nuw [3 x i32], ptr @switch.table._ZN7Imf_3_413pixelTypeSizeENS_9PixelTypeE, i64 0, i64 %8
  %switch.load = load i32, ptr %switch.gep, align 4
  ret i32 %switch.load
}